target datalayout = "e-m:e-p270:32:32-p271:32:32-p272:64:64-i64:64-i128:128-f80:128-n8:16:32:64-S128"
target triple = "x86_64-pc-linux-gnu"

%class.XPageAllocator = type <{ %class.XLock, %class.XPageCache, %class.XVirtualMemoryManager, %class.XPhysicalMemoryManager, i64, i64, i64, i64, i64, i64, i64, i64, i64, %class.XList.4, i64, %class.XList.4, ptr, ptr, %class.XSafeDelete, i8, [7 x i8] }>
%class.XLock = type { %class.PlatformMutex }
%class.PlatformMutex = type { %union.pthread_mutex_t }
%union.pthread_mutex_t = type { %struct.__pthread_mutex_s }
%struct.__pthread_mutex_s = type { i32, i32, i32, i32, i32, i16, i16, %struct.__pthread_internal_list }
%struct.__pthread_internal_list = type { ptr, ptr }
%class.XPageCache = type { %class.XValue, %class.XList, %class.XList, i64 }
%class.XValue = type { i64 }
%class.XList = type { %class.XListNode, i64 }
%class.XListNode = type { ptr, ptr }
%class.XVirtualMemoryManager = type <{ %class.XMemoryManager, i64, i8, [7 x i8] }>
%class.XMemoryManager = type { %class.XLock, %class.XList.2, %"struct.XMemoryManager::Callbacks" }
%class.XList.2 = type { %class.XListNode.3, i64 }
%class.XListNode.3 = type { ptr, ptr }
%"struct.XMemoryManager::Callbacks" = type { ptr, ptr, ptr, ptr, ptr, ptr }
%class.XPhysicalMemoryManager = type { %class.XPhysicalMemoryBacking, %class.XMemoryManager }
%class.XPhysicalMemoryBacking = type <{ i32, [4 x i8], i64, i64, i64, i64, i8, [7 x i8] }>
%class.XList.4 = type { %class.XListNode.5, i64 }
%class.XListNode.5 = type { ptr, ptr }
%class.XSafeDelete = type { %class.XSafeDeleteImpl, %class.XLock }
%class.XSafeDeleteImpl = type { ptr, i64, %class.GrowableArrayCHeap }
%class.GrowableArrayCHeap = type { %class.GrowableArrayWithAllocator }
%class.GrowableArrayWithAllocator = type { %class.GrowableArrayView }
%class.GrowableArrayView = type { %class.GrowableArrayBase, ptr }
%class.GrowableArrayBase = type { i32, i32 }
%class.XPage = type { i8, i8, i32, %class.XVirtualMemory, i64, %class.XLiveMap, i64, %class.XPhysicalMemory, %class.XListNode }
%class.XVirtualMemory = type { i64, i64 }
%class.XLiveMap = type { i32, i32, i64, i64, i64, %class.XBitMap, i64 }
%class.XBitMap = type { %class.CHeapBitMap.base, [7 x i8] }
%class.CHeapBitMap.base = type <{ %class.GrowableBitMap, i8 }>
%class.GrowableBitMap = type { %class.BitMap }
%class.BitMap = type { ptr, i64 }
%class.XPhysicalMemory = type { %class.GrowableArrayCHeap.8 }
%class.GrowableArrayCHeap.8 = type { %class.GrowableArrayWithAllocator.9 }
%class.GrowableArrayWithAllocator.9 = type { %class.GrowableArrayView.10 }
%class.GrowableArrayView.10 = type { %class.GrowableArrayBase, ptr }
%"struct.Atomic::PlatformAdd" = type { i8 }

; Function Attrs: mustprogress nounwind uwtable
define linkonce_odr hidden noundef i64 @_ZNK6Atomic11PlatformAddILm8EE14fetch_then_addImmEET_PVS3_T0_19atomic_memory_order(ptr noundef nonnull align 1 dereferenceable(1) %0, ptr noundef %1, i64 noundef %2, i32 noundef %3) #1 comdat align 2 {
  %5 = alloca ptr, align 8
  %6 = alloca ptr, align 8
  %7 = alloca i64, align 8
  %8 = alloca i32, align 4
  %9 = alloca i64, align 8
  store ptr %0, ptr %5, align 8
  store ptr %1, ptr %6, align 8
  store i64 %2, ptr %7, align 8
  store i32 %3, ptr %8, align 4
  %10 = load i64, ptr %7, align 8
  %11 = load ptr, ptr %6, align 8
  %12 = call i64 asm sideeffect "lock xaddq $0,($2)", "=r,0,r,~{cc},~{memory},~{dirflag},~{fpsr},~{flags}"(i64 %10, ptr %11) #7, !srcloc !18
  store i64 %12, ptr %9, align 8
  %13 = load i64, ptr %9, align 8
  ret i64 %13
}

; Function Attrs: mustprogress nounwind uwtable
define linkonce_odr hidden noundef i64 @_ZNK6Atomic11PlatformAddILm8EE14add_then_fetchImmEET_PVS3_T0_19atomic_memory_order(ptr noundef nonnull align 1 dereferenceable(1) %0, ptr noundef %1, i64 noundef %2, i32 noundef %3) #1 comdat align 2 {
  %5 = alloca ptr, align 8
  %6 = alloca ptr, align 8
  %7 = alloca i64, align 8
  %8 = alloca i32, align 4
  store ptr %0, ptr %5, align 8
  store ptr %1, ptr %6, align 8
  store i64 %2, ptr %7, align 8
  store i32 %3, ptr %8, align 4
  %9 = load ptr, ptr %5, align 8
  %10 = load ptr, ptr %6, align 8
  %11 = load i64, ptr %7, align 8
  %12 = load i32, ptr %8, align 4
  %13 = call noundef i64 @_ZNK6Atomic11PlatformAddILm8EE14fetch_then_addImmEET_PVS3_T0_19atomic_memory_order(ptr noundef nonnull align 1 dereferenceable(1) %9, ptr noundef %10, i64 noundef %11, i32 noundef %12)
  %14 = load i64, ptr %7, align 8
  %15 = add i64 %13, %14
  ret i64 %15
}

; Function Attrs: mustprogress nounwind uwtable
define linkonce_odr hidden noundef i64 @_ZN6Atomic7AddImplImmvE14add_then_fetchEPVmm19atomic_memory_order(ptr noundef %0, i64 noundef %1, i32 noundef %2) #1 comdat align 2 {
  %4 = alloca ptr, align 8
  %5 = alloca i64, align 8
  %6 = alloca i32, align 4
  %7 = alloca i64, align 8
  %8 = alloca %"struct.Atomic::PlatformAdd", align 1
  store ptr %0, ptr %4, align 8
  store i64 %1, ptr %5, align 8
  store i32 %2, ptr %6, align 4
  %9 = load i64, ptr %5, align 8
  store i64 %9, ptr %7, align 8
  %10 = load ptr, ptr %4, align 8
  %11 = load i64, ptr %7, align 8
  %12 = load i32, ptr %6, align 4
  %13 = call noundef i64 @_ZNK6Atomic11PlatformAddILm8EE14add_then_fetchImmEET_PVS3_T0_19atomic_memory_order(ptr noundef nonnull align 1 dereferenceable(1) %8, ptr noundef %10, i64 noundef %11, i32 noundef %12)
  ret i64 %13
}

; Function Attrs: mustprogress nounwind uwtable
define linkonce_odr hidden void @_ZNK9XListNodeI5XPageE19verify_links_linkedEv(ptr noundef nonnull align 8 dereferenceable(16) %0) #1 comdat align 2 {
  %2 = alloca ptr, align 8
  store ptr %0, ptr %2, align 8
  %3 = load ptr, ptr %2, align 8
  call void @_ZNK9XListNodeI5XPageE12verify_linksEv(ptr noundef nonnull align 8 dereferenceable(16) %3)
  ret void
}

; Function Attrs: mustprogress nounwind uwtable
define linkonce_odr hidden void @_ZNK9XListNodeI5XPageE21verify_links_unlinkedEv(ptr noundef nonnull align 8 dereferenceable(16) %0) #1 comdat align 2 {
  %2 = alloca ptr, align 8
  store ptr %0, ptr %2, align 8
  ret void
}

; Function Attrs: mustprogress nounwind uwtable
define linkonce_odr hidden void @_ZNK9XListNodeI5XPageE12verify_linksEv(ptr noundef nonnull align 8 dereferenceable(16) %0) #1 comdat align 2 {
  %2 = alloca ptr, align 8
  store ptr %0, ptr %2, align 8
  ret void
}

; Function Attrs: mustprogress nounwind uwtable
define linkonce_odr hidden void @_ZNK5XListI5XPageE11verify_headEv(ptr noundef nonnull align 8 dereferenceable(24) %0) #1 comdat align 2 {
  %2 = alloca ptr, align 8
  store ptr %0, ptr %2, align 8
  %3 = load ptr, ptr %2, align 8
  %4 = getelementptr inbounds %class.XList, ptr %3, i32 0, i32 0
  call void @_ZNK9XListNodeI5XPageE12verify_linksEv(ptr noundef nonnull align 8 dereferenceable(16) %4)
  ret void
}

; Function Attrs: mustprogress nounwind uwtable
define linkonce_odr hidden noundef i64 @_ZN6Atomic3addImmEET_PVS1_T0_19atomic_memory_order(ptr noundef %0, i64 noundef %1, i32 noundef %2) #1 comdat align 2 {
  %4 = alloca ptr, align 8
  %5 = alloca i64, align 8
  %6 = alloca i32, align 4
  store ptr %0, ptr %4, align 8
  store i64 %1, ptr %5, align 8
  store i32 %2, ptr %6, align 4
  %7 = load ptr, ptr %4, align 8
  %8 = load i64, ptr %5, align 8
  %9 = load i32, ptr %6, align 4
  %10 = call noundef i64 @_ZN6Atomic7AddImplImmvE14add_then_fetchEPVmm19atomic_memory_order(ptr noundef %7, i64 noundef %8, i32 noundef %9)
  ret i64 %10
}

; Function Attrs: mustprogress nounwind uwtable
define linkonce_odr hidden noundef i64 @_Z4MIN2ImET_S0_S0_(i64 noundef %0, i64 noundef %1) #1 comdat {
  %3 = alloca i64, align 8
  %4 = alloca i64, align 8
  store i64 %0, ptr %3, align 8
  store i64 %1, ptr %4, align 8
  %5 = load i64, ptr %3, align 8
  %6 = load i64, ptr %4, align 8
  %7 = icmp ult i64 %5, %6
  br i1 %7, label %8, label %10

8:                                                ; preds = %2
  %9 = load i64, ptr %3, align 8
  br label %12

10:                                               ; preds = %2
  %11 = load i64, ptr %4, align 8
  br label %12

12:                                               ; preds = %10, %8
  %13 = phi i64 [ %9, %8 ], [ %11, %10 ]
  ret i64 %13
}

; Function Attrs: mustprogress nounwind uwtable
define linkonce_odr hidden void @_ZN5XListI5XPageE6insertEP9XListNodeIS0_ES4_(ptr noundef nonnull align 8 dereferenceable(24) %0, ptr noundef %1, ptr noundef %2) #1 comdat align 2 {
  %4 = alloca ptr, align 8
  %5 = alloca ptr, align 8
  %6 = alloca ptr, align 8
  store ptr %0, ptr %4, align 8
  store ptr %1, ptr %5, align 8
  store ptr %2, ptr %6, align 8
  %7 = load ptr, ptr %4, align 8
  call void @_ZNK5XListI5XPageE11verify_headEv(ptr noundef nonnull align 8 dereferenceable(24) %7)
  %8 = load ptr, ptr %5, align 8
  call void @_ZNK9XListNodeI5XPageE12verify_linksEv(ptr noundef nonnull align 8 dereferenceable(16) %8)
  %9 = load ptr, ptr %6, align 8
  call void @_ZNK9XListNodeI5XPageE21verify_links_unlinkedEv(ptr noundef nonnull align 8 dereferenceable(16) %9)
  %10 = load ptr, ptr %5, align 8
  %11 = load ptr, ptr %6, align 8
  %12 = getelementptr inbounds %class.XListNode, ptr %11, i32 0, i32 1
  store ptr %10, ptr %12, align 8
  %13 = load ptr, ptr %5, align 8
  %14 = getelementptr inbounds %class.XListNode, ptr %13, i32 0, i32 0
  %15 = load ptr, ptr %14, align 8
  %16 = load ptr, ptr %6, align 8
  %17 = getelementptr inbounds %class.XListNode, ptr %16, i32 0, i32 0
  store ptr %15, ptr %17, align 8
  %18 = load ptr, ptr %6, align 8
  %19 = load ptr, ptr %5, align 8
  %20 = getelementptr inbounds %class.XListNode, ptr %19, i32 0, i32 0
  store ptr %18, ptr %20, align 8
  %21 = load ptr, ptr %6, align 8
  %22 = load ptr, ptr %6, align 8
  %23 = getelementptr inbounds %class.XListNode, ptr %22, i32 0, i32 0
  %24 = load ptr, ptr %23, align 8
  %25 = getelementptr inbounds %class.XListNode, ptr %24, i32 0, i32 1
  store ptr %21, ptr %25, align 8
  %26 = load ptr, ptr %5, align 8
  call void @_ZNK9XListNodeI5XPageE19verify_links_linkedEv(ptr noundef nonnull align 8 dereferenceable(16) %26)
  %27 = load ptr, ptr %6, align 8
  call void @_ZNK9XListNodeI5XPageE19verify_links_linkedEv(ptr noundef nonnull align 8 dereferenceable(16) %27)
  %28 = getelementptr inbounds %class.XList, ptr %7, i32 0, i32 1
  %29 = load i64, ptr %28, align 8
  %30 = add i64 %29, 1
  store i64 %30, ptr %28, align 8
  ret void
}

; Function Attrs: mustprogress nounwind uwtable
define linkonce_odr hidden noundef ptr @_ZNK5XListI5XPageE13cast_to_innerEPS0_(ptr noundef nonnull align 8 dereferenceable(24) %0, ptr noundef %1) #1 comdat align 2 {
  %3 = alloca ptr, align 8
  %4 = alloca ptr, align 8
  store ptr %0, ptr %3, align 8
  store ptr %1, ptr %4, align 8
  %5 = load ptr, ptr %4, align 8
  %6 = getelementptr inbounds %class.XPage, ptr %5, i32 0, i32 8
  ret ptr %6
}

; Function Attrs: mustprogress nounwind uwtable
define hidden noundef i64 @_ZN14XPageAllocator17increase_capacityEm(ptr noundef nonnull align 8 dereferenceable(609) %0, i64 noundef %1) #1 align 2 {
  %3 = alloca ptr, align 8
  %4 = alloca i64, align 8
  %5 = alloca i64, align 8
  store ptr %0, ptr %3, align 8
  store i64 %1, ptr %4, align 8
  %6 = load ptr, ptr %3, align 8
  %7 = load i64, ptr %4, align 8
  %8 = getelementptr inbounds %class.XPageAllocator, ptr %6, i32 0, i32 6
  %9 = load volatile i64, ptr %8, align 8
  %10 = getelementptr inbounds %class.XPageAllocator, ptr %6, i32 0, i32 7
  %11 = load volatile i64, ptr %10, align 8
  %12 = sub i64 %9, %11
  %13 = call noundef i64 @_Z4MIN2ImET_S0_S0_(i64 noundef %7, i64 noundef %12)
  store i64 %13, ptr %5, align 8
  %14 = load i64, ptr %5, align 8
  %15 = icmp ugt i64 %14, 0
  br i1 %15, label %16, label %21

16:                                               ; preds = %2
  %17 = getelementptr inbounds %class.XPageAllocator, ptr %6, i32 0, i32 7
  %18 = load i64, ptr %5, align 8
  %19 = call noundef i64 @_ZN6Atomic3addImmEET_PVS1_T0_19atomic_memory_order(ptr noundef %17, i64 noundef %18, i32 noundef 8)
  %20 = getelementptr inbounds %class.XPageAllocator, ptr %6, i32 0, i32 1
  call void @_ZN10XPageCache15set_last_commitEv(ptr noundef nonnull align 8 dereferenceable(64) %20)
  br label %21

21:                                               ; preds = %16, %2
  %22 = load i64, ptr %5, align 8
  ret i64 %22
}

; Function Attrs: mustprogress nounwind uwtable
define linkonce_odr hidden void @_ZN5XListI5XPageE11insert_lastEPS0_(ptr noundef nonnull align 8 dereferenceable(24) %0, ptr noundef %1) #1 comdat align 2 {
  %3 = alloca ptr, align 8
  %4 = alloca ptr, align 8
  store ptr %0, ptr %3, align 8
  store ptr %1, ptr %4, align 8
  %5 = load ptr, ptr %3, align 8
  %6 = getelementptr inbounds %class.XList, ptr %5, i32 0, i32 0
  %7 = getelementptr inbounds %class.XListNode, ptr %6, i32 0, i32 1
  %8 = load ptr, ptr %7, align 8
  %9 = load ptr, ptr %4, align 8
  %10 = call noundef ptr @_ZNK5XListI5XPageE13cast_to_innerEPS0_(ptr noundef nonnull align 8 dereferenceable(24) %5, ptr noundef %9)
  call void @_ZN5XListI5XPageE6insertEP9XListNodeIS0_ES4_(ptr noundef nonnull align 8 dereferenceable(24) %5, ptr noundef %8, ptr noundef %10)
  ret void
}

; Function Attrs: mustprogress nounwind uwtable
define hidden noundef zeroext i1 @_ZNK14XPageAllocator16is_alloc_allowedEm(ptr noundef nonnull align 8 dereferenceable(609) %0, i64 noundef %1) #1 align 2 {
  %3 = alloca ptr, align 8
  %4 = alloca i64, align 8
  %5 = alloca i64, align 8
  store ptr %0, ptr %3, align 8
  store i64 %1, ptr %4, align 8
  %6 = load ptr, ptr %3, align 8
  %7 = getelementptr inbounds %class.XPageAllocator, ptr %6, i32 0, i32 6
  %8 = load volatile i64, ptr %7, align 8
  %9 = getelementptr inbounds %class.XPageAllocator, ptr %6, i32 0, i32 9
  %10 = load volatile i64, ptr %9, align 8
  %11 = sub i64 %8, %10
  %12 = getelementptr inbounds %class.XPageAllocator, ptr %6, i32 0, i32 8
  %13 = load volatile i64, ptr %12, align 8
  %14 = sub i64 %11, %13
  store i64 %14, ptr %5, align 8
  %15 = load i64, ptr %5, align 8
  %16 = load i64, ptr %4, align 8
  %17 = icmp uge i64 %15, %16
  ret i1 %17
}

; Function Attrs: mustprogress nounwind uwtable
define hidden noundef zeroext i1 @_ZN14XPageAllocator23alloc_page_common_innerEhmP5XListI5XPageE(ptr noundef nonnull align 8 dereferenceable(609) %0, i8 noundef zeroext %1, i64 noundef %2, ptr noundef %3) #1 align 2 {
  %5 = alloca i1, align 1
  %6 = alloca ptr, align 8
  %7 = alloca i8, align 1
  %8 = alloca i64, align 8
  %9 = alloca ptr, align 8
  %10 = alloca ptr, align 8
  %11 = alloca i64, align 8
  %12 = alloca i64, align 8
  store ptr %0, ptr %6, align 8
  store i8 %1, ptr %7, align 1
  store i64 %2, ptr %8, align 8
  store ptr %3, ptr %9, align 8
  %13 = load ptr, ptr %6, align 8
  %14 = load i64, ptr %8, align 8
  %15 = call noundef zeroext i1 @_ZNK14XPageAllocator16is_alloc_allowedEm(ptr noundef nonnull align 8 dereferenceable(609) %13, i64 noundef %14)
  br i1 %15, label %17, label %16

16:                                               ; preds = %4
  store i1 false, ptr %5, align 1
  br label %41

17:                                               ; preds = %4
  %18 = getelementptr inbounds %class.XPageAllocator, ptr %13, i32 0, i32 1
  %19 = load i8, ptr %7, align 1
  %20 = load i64, ptr %8, align 8
  %21 = call noundef ptr @_ZN10XPageCache10alloc_pageEhm(ptr noundef nonnull align 8 dereferenceable(64) %18, i8 noundef zeroext %19, i64 noundef %20)
  store ptr %21, ptr %10, align 8
  %22 = load ptr, ptr %10, align 8
  %23 = icmp ne ptr %22, null
  br i1 %23, label %24, label %27

24:                                               ; preds = %17
  %25 = load ptr, ptr %9, align 8
  %26 = load ptr, ptr %10, align 8
  call void @_ZN5XListI5XPageE11insert_lastEPS0_(ptr noundef nonnull align 8 dereferenceable(24) %25, ptr noundef %26)
  store i1 true, ptr %5, align 1
  br label %41

27:                                               ; preds = %17
  %28 = load i64, ptr %8, align 8
  %29 = call noundef i64 @_ZN14XPageAllocator17increase_capacityEm(ptr noundef nonnull align 8 dereferenceable(609) %13, i64 noundef %28)
  store i64 %29, ptr %11, align 8
  %30 = load i64, ptr %11, align 8
  %31 = load i64, ptr %8, align 8
  %32 = icmp ult i64 %30, %31
  br i1 %32, label %33, label %40

33:                                               ; preds = %27
  %34 = load i64, ptr %8, align 8
  %35 = load i64, ptr %11, align 8
  %36 = sub i64 %34, %35
  store i64 %36, ptr %12, align 8
  %37 = getelementptr inbounds %class.XPageAllocator, ptr %13, i32 0, i32 1
  %38 = load i64, ptr %12, align 8
  %39 = load ptr, ptr %9, align 8
  call void @_ZN10XPageCache20flush_for_allocationEmP5XListI5XPageE(ptr noundef nonnull align 8 dereferenceable(64) %37, i64 noundef %38, ptr noundef %39)
  br label %40

40:                                               ; preds = %33, %27
  store i1 true, ptr %5, align 1
  br label %41

41:                                               ; preds = %40, %24, %16
  %42 = load i1, ptr %5, align 1
  ret i1 %42
}