; Function Attrs: mustprogress nounwind uwtable
define hidden noundef zeroext i1 @_ZN14XPageAllocator23alloc_page_common_innerEhmP5XListI5XPageE(ptr noundef nonnull align 8 dereferenceable(609) %0, i8 noundef zeroext %1, i64 noundef %2, ptr noundef %3) local_unnamed_addr #1 align 2 {
  %5 = getelementptr inbounds i8, ptr %0, i64 408
  %6 = load volatile i64, ptr %5, align 8
  %7 = getelementptr inbounds i8, ptr %0, i64 432
  %8 = load volatile i64, ptr %7, align 8
  %9 = getelementptr inbounds i8, ptr %0, i64 424
  %10 = load volatile i64, ptr %9, align 8
  %11 = add i64 %8, %10
  %12 = sub i64 %6, %11
  %13 = icmp uge i64 %12, %2
  br i1 %13, label %14, label %39

14:                                               ; preds = %4
  %15 = getelementptr inbounds i8, ptr %0, i64 40
  %16 = tail call noundef ptr @_ZN10XPageCache10alloc_pageEhm(ptr noundef nonnull align 8 dereferenceable(64) %15, i8 noundef zeroext %1, i64 noundef %2) #14
  %.not = icmp eq ptr %16, null
  br i1 %.not, label %28, label %17

17:                                               ; preds = %14
  %18 = getelementptr inbounds i8, ptr %3, i64 8
  %19 = load ptr, ptr %18, align 8
  %20 = getelementptr inbounds i8, ptr %16, i64 120
  %21 = getelementptr inbounds i8, ptr %16, i64 128
  store ptr %19, ptr %21, align 8
  %22 = load ptr, ptr %19, align 8
  store ptr %22, ptr %20, align 8
  store ptr %20, ptr %19, align 8
  %23 = load ptr, ptr %20, align 8
  %24 = getelementptr inbounds i8, ptr %23, i64 8
  store ptr %20, ptr %24, align 8
  %25 = getelementptr inbounds i8, ptr %3, i64 16
  %26 = load i64, ptr %25, align 8
  %27 = add i64 %26, 1
  store i64 %27, ptr %25, align 8
  br label %39

28:                                               ; preds = %14
  %29 = load volatile i64, ptr %5, align 8
  %30 = getelementptr inbounds i8, ptr %0, i64 416
  %31 = load volatile i64, ptr %30, align 8
  %32 = sub i64 %29, %31
  %33 = tail call noundef i64 @llvm.umin.i64(i64 %2, i64 %32)
  %.not.i = icmp eq i64 %33, 0
  br i1 %.not.i, label %_ZN14XPageAllocator17increase_capacityEm.exit, label %34

34:                                               ; preds = %28
  %35 = tail call noundef i64 asm sideeffect "lock xaddq $0,($2)", "=r,0,r,~{cc},~{memory},~{dirflag},~{fpsr},~{flags}"(i64 %33, ptr nonnull %30) #14, !srcloc !6
  tail call void @_ZN10XPageCache15set_last_commitEv(ptr noundef nonnull align 8 dereferenceable(64) %15) #14
  br label %_ZN14XPageAllocator17increase_capacityEm.exit

_ZN14XPageAllocator17increase_capacityEm.exit:    ; preds = %28, %34
  %36 = icmp ult i64 %32, %2
  br i1 %36, label %37, label %39

37:                                               ; preds = %_ZN14XPageAllocator17increase_capacityEm.exit
  %38 = sub i64 %2, %33
  tail call void @_ZN10XPageCache20flush_for_allocationEmP5XListI5XPageE(ptr noundef nonnull align 8 dereferenceable(64) %15, i64 noundef %38, ptr noundef %3) #14
  br label %39

39:                                               ; preds = %_ZN14XPageAllocator17increase_capacityEm.exit, %37, %4, %17
  ret i1 %13
}